target datalayout = "e-m:e-p270:32:32-p271:32:32-p272:64:64-i64:64-i128:128-f80:128-n8:16:32:64-S128"
target triple = "x86_64-pc-linux-gnu"

%"class.nanobind::handle" = type { ptr }
%class.anon.1488 = type { i64 }
%"struct.nanobind::detail::type_caster.1469" = type { %"struct.nanobind::detail::type_caster_base.1470" }
%"struct.nanobind::detail::type_caster_base.1470" = type { ptr }
%class.anon.1492 = type { i8 }
%struct.capture.1491 = type { %class.anon.1488 }
%"struct.nanobind::detail::tuple.1494" = type { %"struct.nanobind::detail::type_caster.1469" }

@_ZTIZL28nanobind_init_test_eigen_extRN8nanobind7module_EE20ClassWithEigenMember = internal constant { ptr, ptr } { ptr getelementptr inbounds (ptr, ptr @_ZTVN10__cxxabiv117__class_type_infoE, i64 2), ptr @_ZTSZL28nanobind_init_test_eigen_extRN8nanobind7module_EE20ClassWithEigenMember }, align 8

; Function Attrs: alwaysinline mustprogress nounwind optsize uwtable
define linkonce_odr hidden noundef ptr @_ZNK8nanobind6handle3ptrEv(ptr noundef nonnull align 8 dereferenceable(8) %0) #7 comdat align 2 {
  %2 = alloca ptr, align 8
  store ptr %0, ptr %2, align 8, !tbaa !20
  %3 = load ptr, ptr %2, align 8
  %4 = getelementptr inbounds nuw %"class.nanobind::handle", ptr %3, i32 0, i32 0
  %5 = load ptr, ptr %4, align 8, !tbaa !22
  ret ptr %5
}

; Function Attrs: inlinehint mustprogress nounwind optsize uwtable
define internal noundef nonnull align 8 dereferenceable(24) ptr @_ZZN8nanobind6class_IZL28nanobind_init_test_eigen_extRNS_7module_EE20ClassWithEigenMemberJEE6def_rwIS3_N5Eigen6MatrixIdLin1ELin1ELi0ELin1ELin1EEEJEEERS4_PKcMT_T0_DpRKT1_ENKUlRKS3_E_clESK_(ptr noundef nonnull align 8 dereferenceable(8) %0, ptr noundef nonnull align 8 dereferenceable(24) %1) #11 align 2 {
  %3 = alloca ptr, align 8
  %4 = alloca ptr, align 8
  store ptr %0, ptr %3, align 8, !tbaa !41
  store ptr %1, ptr %4, align 8, !tbaa !2903
  %5 = load ptr, ptr %3, align 8
  %6 = load ptr, ptr %4, align 8, !tbaa !2903
  %7 = getelementptr inbounds nuw %class.anon.1488, ptr %5, i32 0, i32 0
  %8 = load i64, ptr %7, align 8, !tbaa !96
  %9 = getelementptr inbounds i8, ptr %6, i64 %8
  ret ptr %9
}

; Function Attrs: mustprogress optsize uwtable
define internal noundef nonnull align 8 dereferenceable(24) ptr @_ZN8nanobind6detail16type_caster_baseIZL28nanobind_init_test_eigen_extRNS_7module_EE20ClassWithEigenMemberEcvRS4_Ev(ptr noundef nonnull align 8 dereferenceable(8) %0) #3 align 2 {
  %2 = alloca ptr, align 8
  store ptr %0, ptr %2, align 8, !tbaa !2933
  %3 = load ptr, ptr %2, align 8
  %4 = getelementptr inbounds nuw %"struct.nanobind::detail::type_caster_base.1470", ptr %3, i32 0, i32 0
  %5 = load ptr, ptr %4, align 8, !tbaa !2935
  call void @_ZN8nanobind6detail27raise_next_overload_if_nullEPv(ptr noundef %5) #24
  %6 = getelementptr inbounds nuw %"struct.nanobind::detail::type_caster_base.1470", ptr %3, i32 0, i32 0
  %7 = load ptr, ptr %6, align 8, !tbaa !2935
  ret ptr %7
}

; Function Attrs: alwaysinline mustprogress nounwind optsize uwtable
define internal noundef zeroext i1 @_ZN8nanobind6detail16type_caster_baseIZL28nanobind_init_test_eigen_extRNS_7module_EE20ClassWithEigenMemberE11from_pythonENS_6handleEhPNS0_12cleanup_listE(ptr noundef nonnull align 8 dereferenceable(8) %0, ptr %1, i8 noundef zeroext %2, ptr noundef %3) #7 align 2 {
  %5 = alloca %"class.nanobind::handle", align 8
  %6 = alloca ptr, align 8
  %7 = alloca i8, align 1
  %8 = alloca ptr, align 8
  %9 = getelementptr inbounds nuw %"class.nanobind::handle", ptr %5, i32 0, i32 0
  store ptr %1, ptr %9, align 8
  store ptr %0, ptr %6, align 8, !tbaa !2933
  store i8 %2, ptr %7, align 1, !tbaa !30
  store ptr %3, ptr %8, align 8, !tbaa !143
  %10 = load ptr, ptr %6, align 8
  %11 = call noundef ptr @_ZNK8nanobind6handle3ptrEv(ptr noundef nonnull align 8 dereferenceable(8) %5) #24
  %12 = load i8, ptr %7, align 1, !tbaa !30
  %13 = load ptr, ptr %8, align 8, !tbaa !143
  %14 = getelementptr inbounds nuw %"struct.nanobind::detail::type_caster_base.1470", ptr %10, i32 0, i32 0
  %15 = call noundef zeroext i1 @_ZN8nanobind6detail11nb_type_getEPKSt9type_infoP7_objecthPNS0_12cleanup_listEPPv(ptr noundef @_ZTIZL28nanobind_init_test_eigen_extRN8nanobind7module_EE20ClassWithEigenMember, ptr noundef %11, i8 noundef zeroext %12, ptr noundef %13, ptr noundef %14) #26
  ret i1 %15
}

; Function Attrs: alwaysinline mustprogress nounwind optsize uwtable
define linkonce_odr hidden void @_ZN8nanobind6handleC2EPK7_object(ptr noundef nonnull align 8 dereferenceable(8) %0, ptr noundef %1) unnamed_addr #7 comdat align 2 {
  %3 = alloca ptr, align 8
  %4 = alloca ptr, align 8
  store ptr %0, ptr %3, align 8, !tbaa !20
  store ptr %1, ptr %4, align 8, !tbaa !14
  %5 = load ptr, ptr %3, align 8
  %6 = getelementptr inbounds nuw %"class.nanobind::handle", ptr %5, i32 0, i32 0
  %7 = load ptr, ptr %4, align 8, !tbaa !14
  store ptr %7, ptr %6, align 8, !tbaa !22
  ret void
}

; Function Attrs: alwaysinline mustprogress nounwind optsize uwtable
define internal noundef nonnull align 8 dereferenceable(8) ptr @_ZN8nanobind6detail5tupleIJNS0_11type_casterIZL28nanobind_init_test_eigen_extRNS_7module_EE20ClassWithEigenMemberiEEEE3getILm0EEERDav(ptr noundef nonnull align 8 dereferenceable(8) %0) #7 align 2 {
  %2 = alloca ptr, align 8
  store ptr %0, ptr %2, align 8, !tbaa !2983
  %3 = load ptr, ptr %2, align 8
  %4 = getelementptr inbounds nuw %"struct.nanobind::detail::tuple.1494", ptr %3, i32 0, i32 0
  ret ptr %4
}

; Function Attrs: alwaysinline mustprogress optsize uwtable
define internal noundef ptr @_ZZN8nanobind6detail11func_createILb1ELb1EZNS_6class_IZL28nanobind_init_test_eigen_extRNS_7module_EE20ClassWithEigenMemberJEE6def_rwIS5_N5Eigen6MatrixIdLin1ELin1ELi0ELin1ELin1EEEJEEERS6_PKcMT_T0_DpRKT1_EUlRKS5_E_RKSA_JSM_EJLm0EEJNS_9is_methodENS_9is_getterENS_9rv_policyEEEEP7_objectOT1_PFT2_DpT3_ESt16integer_sequenceImJXspT4_EEEDpRKT5_ENKUlPvPSU_PhSS_PNS0_12cleanup_listEE_clES18_S19_S1A_SS_S1C_(ptr noundef nonnull align 1 dereferenceable(1) %0, ptr noundef %1, ptr noundef %2, ptr noundef %3, i32 noundef %4, ptr noundef %5) #5 align 2 {
  %7 = alloca ptr, align 8
  %8 = alloca ptr, align 8
  %9 = alloca ptr, align 8
  %10 = alloca ptr, align 8
  %11 = alloca ptr, align 8
  %12 = alloca i32, align 4
  %13 = alloca ptr, align 8
  %14 = alloca ptr, align 8
  %15 = alloca %"struct.nanobind::detail::tuple.1494", align 8
  %16 = alloca %"class.nanobind::handle", align 8
  %17 = alloca i32, align 4
  %18 = alloca ptr, align 8
  %19 = alloca %"class.nanobind::handle", align 8
  store ptr %0, ptr %8, align 8, !tbaa !41
  store ptr %1, ptr %9, align 8, !tbaa !41
  store ptr %2, ptr %10, align 8, !tbaa !141
  store ptr %3, ptr %11, align 8, !tbaa !39
  store i32 %4, ptr %12, align 4, !tbaa !31
  store ptr %5, ptr %13, align 8, !tbaa !143
  call void @llvm.lifetime.start.p0(i64 8, ptr %14) #25
  %20 = load ptr, ptr %9, align 8, !tbaa !41
  store ptr %20, ptr %14, align 8, !tbaa !2979
  call void @llvm.lifetime.start.p0(i64 8, ptr %15) #25
  %21 = call noundef nonnull align 8 dereferenceable(8) ptr @_ZN8nanobind6detail5tupleIJNS0_11type_casterIZL28nanobind_init_test_eigen_extRNS_7module_EE20ClassWithEigenMemberiEEEE3getILm0EEERDav(ptr noundef nonnull align 8 dereferenceable(8) %15) #24
  %22 = load ptr, ptr %10, align 8, !tbaa !141
  %23 = getelementptr inbounds nuw ptr, ptr %22, i64 0
  %24 = load ptr, ptr %23, align 8, !tbaa !14
  call void @_ZN8nanobind6handleC2EPK7_object(ptr noundef nonnull align 8 dereferenceable(8) %16, ptr noundef %24) #24
  %25 = load ptr, ptr %11, align 8, !tbaa !39
  %26 = getelementptr inbounds nuw i8, ptr %25, i64 0
  %27 = load i8, ptr %26, align 1, !tbaa !30
  %28 = load ptr, ptr %13, align 8, !tbaa !143
  %29 = getelementptr inbounds nuw %"class.nanobind::handle", ptr %16, i32 0, i32 0
  %30 = load ptr, ptr %29, align 8
  %31 = call noundef zeroext i1 @_ZN8nanobind6detail16type_caster_baseIZL28nanobind_init_test_eigen_extRNS_7module_EE20ClassWithEigenMemberE11from_pythonENS_6handleEhPNS0_12cleanup_listE(ptr noundef nonnull align 8 dereferenceable(8) %21, ptr %30, i8 noundef zeroext %27, ptr noundef %28) #26
  br i1 %31, label %33, label %32

32:                                               ; preds = %6
  store ptr inttoptr (i64 1 to ptr), ptr %7, align 8
  store i32 1, ptr %17, align 4
  br label %45

33:                                               ; preds = %6
  call void @llvm.lifetime.start.p0(i64 8, ptr %18) #25
  call void @llvm.lifetime.start.p0(i64 8, ptr %19) #25
  %34 = load ptr, ptr %14, align 8, !tbaa !2979
  %35 = getelementptr inbounds nuw %struct.capture.1491, ptr %34, i32 0, i32 0
  %36 = call noundef nonnull align 8 dereferenceable(8) ptr @_ZN8nanobind6detail5tupleIJNS0_11type_casterIZL28nanobind_init_test_eigen_extRNS_7module_EE20ClassWithEigenMemberiEEEE3getILm0EEERDav(ptr noundef nonnull align 8 dereferenceable(8) %15) #24
  %37 = call noundef nonnull align 8 dereferenceable(24) ptr @_ZN8nanobind6detail16type_caster_baseIZL28nanobind_init_test_eigen_extRNS_7module_EE20ClassWithEigenMemberEcvRS4_Ev(ptr noundef nonnull align 8 dereferenceable(8) %36) #24
  %38 = call noundef nonnull align 8 dereferenceable(24) ptr @_ZZN8nanobind6class_IZL28nanobind_init_test_eigen_extRNS_7module_EE20ClassWithEigenMemberJEE6def_rwIS3_N5Eigen6MatrixIdLin1ELin1ELi0ELin1ELin1EEEJEEERS4_PKcMT_T0_DpRKT1_ENKUlRKS3_E_clESK_(ptr noundef nonnull align 8 dereferenceable(8) %35, ptr noundef nonnull align 8 dereferenceable(24) %37) #24
  %39 = load i32, ptr %12, align 4, !tbaa !31
  %40 = load ptr, ptr %13, align 8, !tbaa !143
  %41 = call ptr @_ZN8nanobind6detail11type_casterIN5Eigen6MatrixIdLin1ELin1ELi0ELin1ELin1EEEiE8from_cppERKS4_NS_9rv_policyEPNS0_12cleanup_listE(ptr noundef nonnull align 8 dereferenceable(24) %38, i32 noundef %39, ptr noundef %40) #26
  %42 = getelementptr inbounds nuw %"class.nanobind::handle", ptr %19, i32 0, i32 0
  store ptr %41, ptr %42, align 8
  %43 = call noundef ptr @_ZNK8nanobind6handle3ptrEv(ptr noundef nonnull align 8 dereferenceable(8) %19) #24
  store ptr %43, ptr %18, align 8, !tbaa !14
  call void @llvm.lifetime.end.p0(i64 8, ptr %19) #25
  %44 = load ptr, ptr %18, align 8, !tbaa !14
  store ptr %44, ptr %7, align 8
  store i32 1, ptr %17, align 4
  call void @llvm.lifetime.end.p0(i64 8, ptr %18) #25
  br label %45

45:                                               ; preds = %33, %32
  call void @llvm.lifetime.end.p0(i64 8, ptr %15) #25
  call void @llvm.lifetime.end.p0(i64 8, ptr %14) #25
  %46 = load ptr, ptr %7, align 8
  ret ptr %46
}

; Function Attrs: inlinehint mustprogress optsize uwtable
define internal noundef ptr @_ZZN8nanobind6detail11func_createILb1ELb1EZNS_6class_IZL28nanobind_init_test_eigen_extRNS_7module_EE20ClassWithEigenMemberJEE6def_rwIS5_N5Eigen6MatrixIdLin1ELin1ELi0ELin1ELin1EEEJEEERS6_PKcMT_T0_DpRKT1_EUlRKS5_E_RKSA_JSM_EJLm0EEJNS_9is_methodENS_9is_getterENS_9rv_policyEEEEP7_objectOT1_PFT2_DpT3_ESt16integer_sequenceImJXspT4_EEEDpRKT5_ENUlPvPSU_PhSS_PNS0_12cleanup_listEE_8__invokeES18_S19_S1A_SS_S1C_(ptr noundef %0, ptr noundef %1, ptr noundef %2, i32 noundef %3, ptr noundef %4) #10 align 2 {
  %6 = alloca ptr, align 8
  %7 = alloca ptr, align 8
  %8 = alloca ptr, align 8
  %9 = alloca i32, align 4
  %10 = alloca ptr, align 8
  %11 = alloca %class.anon.1492, align 1
  store ptr %0, ptr %6, align 8, !tbaa !41
  store ptr %1, ptr %7, align 8, !tbaa !141
  store ptr %2, ptr %8, align 8, !tbaa !39
  store i32 %3, ptr %9, align 4, !tbaa !31
  store ptr %4, ptr %10, align 8, !tbaa !143
  %12 = load ptr, ptr %6, align 8, !tbaa !41
  %13 = load ptr, ptr %7, align 8, !tbaa !141
  %14 = load ptr, ptr %8, align 8, !tbaa !39
  %15 = load i32, ptr %9, align 4, !tbaa !31
  %16 = load ptr, ptr %10, align 8, !tbaa !143
  %17 = call noundef ptr @_ZZN8nanobind6detail11func_createILb1ELb1EZNS_6class_IZL28nanobind_init_test_eigen_extRNS_7module_EE20ClassWithEigenMemberJEE6def_rwIS5_N5Eigen6MatrixIdLin1ELin1ELi0ELin1ELin1EEEJEEERS6_PKcMT_T0_DpRKT1_EUlRKS5_E_RKSA_JSM_EJLm0EEJNS_9is_methodENS_9is_getterENS_9rv_policyEEEEP7_objectOT1_PFT2_DpT3_ESt16integer_sequenceImJXspT4_EEEDpRKT5_ENKUlPvPSU_PhSS_PNS0_12cleanup_listEE_clES18_S19_S1A_SS_S1C_(ptr noundef nonnull align 1 dereferenceable(1) %11, ptr noundef %12, ptr noundef %13, ptr noundef %14, i32 noundef %15, ptr noundef %16) #24
  ret ptr %17
}