; Function Attrs: inlinehint mustprogress optsize uwtable
define internal noundef ptr @_ZZN8nanobind6detail11func_createILb1ELb1EZNS_6class_IZL28nanobind_init_test_eigen_extRNS_7module_EE20ClassWithEigenMemberJEE6def_rwIS5_N5Eigen6MatrixIdLin1ELin1ELi0ELin1ELin1EEEJEEERS6_PKcMT_T0_DpRKT1_EUlRKS5_E_RKSA_JSM_EJLm0EEJNS_9is_methodENS_9is_getterENS_9rv_policyEEEEP7_objectOT1_PFT2_DpT3_ESt16integer_sequenceImJXspT4_EEEDpRKT5_ENUlPvPSU_PhSS_PNS0_12cleanup_listEE_8__invokeES18_S19_S1A_SS_S1C_(ptr noundef readonly captures(none) %0, ptr noundef readonly captures(none) %1, ptr noundef readonly captures(none) %2, i32 noundef %3, ptr noundef %4) #18 align 2 {
  %6 = alloca %"struct.nanobind::detail::tuple.1494", align 8
  call void @llvm.lifetime.start.p0(i64 8, ptr nonnull %6) #32
  %7 = load ptr, ptr %1, align 8, !tbaa !107
  %8 = load i8, ptr %2, align 1, !tbaa !74
  %9 = call noundef zeroext i1 @_ZN8nanobind6detail11nb_type_getEPKSt9type_infoP7_objecthPNS0_12cleanup_listEPPv(ptr noundef nonnull @_ZTIZL28nanobind_init_test_eigen_extRN8nanobind7module_EE20ClassWithEigenMember, ptr noundef %7, i8 noundef zeroext %8, ptr noundef %4, ptr noundef nonnull align 8 dereferenceable(8) %6) #33
  br i1 %9, label %10, label %_ZZN8nanobind6detail11func_createILb1ELb1EZNS_6class_IZL28nanobind_init_test_eigen_extRNS_7module_EE20ClassWithEigenMemberJEE6def_rwIS5_N5Eigen6MatrixIdLin1ELin1ELi0ELin1ELin1EEEJEEERS6_PKcMT_T0_DpRKT1_EUlRKS5_E_RKSA_JSM_EJLm0EEJNS_9is_methodENS_9is_getterENS_9rv_policyEEEEP7_objectOT1_PFT2_DpT3_ESt16integer_sequenceImJXspT4_EEEDpRKT5_ENKUlPvPSU_PhSS_PNS0_12cleanup_listEE_clES18_S19_S1A_SS_S1C_.exit

10:                                               ; preds = %5
  %11 = load ptr, ptr %6, align 8, !tbaa !974
  call void @_ZN8nanobind6detail27raise_next_overload_if_nullEPv(ptr noundef %11) #31
  %12 = load ptr, ptr %6, align 8, !tbaa !974
  %.val = load i64, ptr %0, align 8, !tbaa !979
  %13 = getelementptr inbounds i8, ptr %12, i64 %.val
  %14 = call ptr @_ZN8nanobind6detail11type_casterIN5Eigen6MatrixIdLin1ELin1ELi0ELin1ELin1EEEiE8from_cppERKS4_NS_9rv_policyEPNS0_12cleanup_listE(ptr noundef nonnull align 8 dereferenceable(24) %13, i32 noundef %3, ptr noundef %4) #33
  br label %_ZZN8nanobind6detail11func_createILb1ELb1EZNS_6class_IZL28nanobind_init_test_eigen_extRNS_7module_EE20ClassWithEigenMemberJEE6def_rwIS5_N5Eigen6MatrixIdLin1ELin1ELi0ELin1ELin1EEEJEEERS6_PKcMT_T0_DpRKT1_EUlRKS5_E_RKSA_JSM_EJLm0EEJNS_9is_methodENS_9is_getterENS_9rv_policyEEEEP7_objectOT1_PFT2_DpT3_ESt16integer_sequenceImJXspT4_EEEDpRKT5_ENKUlPvPSU_PhSS_PNS0_12cleanup_listEE_clES18_S19_S1A_SS_S1C_.exit

_ZZN8nanobind6detail11func_createILb1ELb1EZNS_6class_IZL28nanobind_init_test_eigen_extRNS_7module_EE20ClassWithEigenMemberJEE6def_rwIS5_N5Eigen6MatrixIdLin1ELin1ELi0ELin1ELin1EEEJEEERS6_PKcMT_T0_DpRKT1_EUlRKS5_E_RKSA_JSM_EJLm0EEJNS_9is_methodENS_9is_getterENS_9rv_policyEEEEP7_objectOT1_PFT2_DpT3_ESt16integer_sequenceImJXspT4_EEEDpRKT5_ENKUlPvPSU_PhSS_PNS0_12cleanup_listEE_clES18_S19_S1A_SS_S1C_.exit: ; preds = %5, %10
  %.0.i = phi ptr [ %14, %10 ], [ inttoptr (i64 1 to ptr), %5 ]
  call void @llvm.lifetime.end.p0(i64 8, ptr nonnull %6) #32
  ret ptr %.0.i
}